target datalayout = "e-m:e-p270:32:32-p271:32:32-p272:64:64-i64:64-i128:128-f80:128-n8:16:32:64-S128"
target triple = "x86_64-pc-linux-gnu"

; Function Attrs: mustprogress uwtable
define void @_ZN2cv15getDerivKernelsERKNS_12_OutputArrayES2_iiibi(ptr noundef nonnull align 8 dereferenceable(24) %0, ptr noundef nonnull align 8 dereferenceable(24) %1, i32 noundef %2, i32 noundef %3, i32 noundef %4, i1 noundef zeroext %5, i32 noundef %6) #0 {
  %8 = alloca ptr, align 8
  %9 = alloca ptr, align 8
  %10 = alloca i32, align 4
  %11 = alloca i32, align 4
  %12 = alloca i32, align 4
  %13 = alloca i8, align 1
  %14 = alloca i32, align 4
  store ptr %0, ptr %8, align 8
  store ptr %1, ptr %9, align 8
  store i32 %2, ptr %10, align 4
  store i32 %3, ptr %11, align 4
  store i32 %4, ptr %12, align 4
  %15 = zext i1 %5 to i8
  store i8 %15, ptr %13, align 1
  store i32 %6, ptr %14, align 4
  %16 = load i32, ptr %12, align 4
  %17 = icmp sle i32 %16, 0
  br i1 %17, label %18, label %26

18:                                               ; preds = %7
  %19 = load ptr, ptr %8, align 8
  %20 = load ptr, ptr %9, align 8
  %21 = load i32, ptr %10, align 4
  %22 = load i32, ptr %11, align 4
  %23 = load i8, ptr %13, align 1
  %24 = trunc i8 %23 to i1
  %25 = load i32, ptr %14, align 4
  call void @_ZN2cvL16getScharrKernelsERKNS_12_OutputArrayES2_iibi(ptr noundef nonnull align 8 dereferenceable(24) %19, ptr noundef nonnull align 8 dereferenceable(24) %20, i32 noundef %21, i32 noundef %22, i1 noundef zeroext %24, i32 noundef %25)
  br label %35

26:                                               ; preds = %7
  %27 = load ptr, ptr %8, align 8
  %28 = load ptr, ptr %9, align 8
  %29 = load i32, ptr %10, align 4
  %30 = load i32, ptr %11, align 4
  %31 = load i32, ptr %12, align 4
  %32 = load i8, ptr %13, align 1
  %33 = trunc i8 %32 to i1
  %34 = load i32, ptr %14, align 4
  call void @_ZN2cvL15getSobelKernelsERKNS_12_OutputArrayES2_iiibi(ptr noundef nonnull align 8 dereferenceable(24) %27, ptr noundef nonnull align 8 dereferenceable(24) %28, i32 noundef %29, i32 noundef %30, i32 noundef %31, i1 noundef zeroext %33, i32 noundef %34)
  br label %35

35:                                               ; preds = %26, %18
  ret void
}