; Function Attrs: mustprogress uwtable
define void @_ZN2cv15getDerivKernelsERKNS_12_OutputArrayES2_iiibi(ptr noundef nonnull align 8 dereferenceable(24) %0, ptr noundef nonnull align 8 dereferenceable(24) %1, i32 noundef %2, i32 noundef %3, i32 noundef %4, i1 noundef zeroext %5, i32 noundef %6) local_unnamed_addr #0 {
  %8 = icmp slt i32 %4, 1
  br i1 %8, label %9, label %10

9:                                                ; preds = %7
  tail call fastcc void @_ZN2cvL16getScharrKernelsERKNS_12_OutputArrayES2_iibi(ptr noundef nonnull align 8 dereferenceable(24) %0, ptr noundef nonnull align 8 dereferenceable(24) %1, i32 noundef %2, i32 noundef %3, i1 noundef zeroext %5, i32 noundef %6)
  br label %11

10:                                               ; preds = %7
  tail call fastcc void @_ZN2cvL15getSobelKernelsERKNS_12_OutputArrayES2_iiibi(ptr noundef nonnull align 8 dereferenceable(24) %0, ptr noundef nonnull align 8 dereferenceable(24) %1, i32 noundef %2, i32 noundef %3, i32 noundef %4, i1 noundef zeroext %5, i32 noundef %6)
  br label %11

11:                                               ; preds = %10, %9
  ret void
}